target datalayout = "e-m:e-p270:32:32-p271:32:32-p272:64:64-i64:64-i128:128-f80:128-n8:16:32:64-S128"
target triple = "x86_64-pc-linux-gnu"

%struct._expr = type { i32, %union.anon.34, i32, i32, i32, i32 }
%union.anon.34 = type { %struct.anon.37 }
%struct.anon.37 = type { ptr, i32, ptr }
%struct._object = type { %union.anon.62, ptr }
%union.anon.62 = type { i64 }
%struct.anon.56 = type { ptr, ptr, i32 }
%struct.anon.54 = type { ptr, ptr }
%struct.anon.63 = type { i32, i32 }

@PyExc_KeyboardInterrupt = external global ptr, align 8

; Function Attrs: alwaysinline nounwind uwtable
define internal i32 @_Py_IsImmortal(ptr noundef %0) #5 {
  %2 = alloca ptr, align 8
  store ptr %0, ptr %2, align 8, !tbaa !31
  %3 = load ptr, ptr %2, align 8, !tbaa !31
  %4 = getelementptr inbounds nuw %struct._object, ptr %3, i32 0, i32 0
  %5 = getelementptr inbounds nuw %struct.anon.63, ptr %4, i32 0, i32 0
  %6 = load i32, ptr %5, align 8, !tbaa !35
  %7 = icmp slt i32 %6, 0
  %8 = zext i1 %7 to i32
  ret i32 %8
}

; Function Attrs: alwaysinline nounwind uwtable
define internal void @Py_DECREF(ptr noundef %0) #5 {
  %2 = alloca ptr, align 8
  store ptr %0, ptr %2, align 8, !tbaa !31
  %3 = load ptr, ptr %2, align 8, !tbaa !31
  %4 = call i32 @_Py_IsImmortal(ptr noundef %3)
  %5 = icmp ne i32 %4, 0
  br i1 %5, label %6, label %7

6:                                                ; preds = %1
  br label %16

7:                                                ; preds = %1
  %8 = load ptr, ptr %2, align 8, !tbaa !31
  %9 = getelementptr inbounds nuw %struct._object, ptr %8, i32 0, i32 0
  %10 = getelementptr inbounds nuw %struct.anon.63, ptr %9, i32 0, i32 0
  %11 = load i32, ptr %10, align 8, !tbaa !35
  %12 = add i32 %11, -1
  store i32 %12, ptr %10, align 8, !tbaa !35
  %13 = icmp eq i32 %12, 0
  br i1 %13, label %14, label %16

14:                                               ; preds = %7
  %15 = load ptr, ptr %2, align 8, !tbaa !31
  call void @_Py_Dealloc(ptr noundef %15)
  br label %16

16:                                               ; preds = %6, %14, %7
  ret void
}

; Function Attrs: nounwind uwtable
define internal i32 @make_const(ptr noundef %0, ptr noundef %1, ptr noundef %2) #0 {
  %4 = alloca i32, align 4
  %5 = alloca ptr, align 8
  %6 = alloca ptr, align 8
  %7 = alloca ptr, align 8
  store ptr %0, ptr %5, align 8, !tbaa !44
  store ptr %1, ptr %6, align 8, !tbaa !31
  store ptr %2, ptr %7, align 8, !tbaa !9
  %8 = load ptr, ptr %6, align 8, !tbaa !31
  %9 = icmp eq ptr %8, null
  br i1 %9, label %10, label %16

10:                                               ; preds = %3
  %11 = load ptr, ptr @PyExc_KeyboardInterrupt, align 8, !tbaa !31
  %12 = call i32 @PyErr_ExceptionMatches(ptr noundef %11)
  %13 = icmp ne i32 %12, 0
  br i1 %13, label %14, label %15

14:                                               ; preds = %10
  store i32 0, ptr %4, align 4
  br label %33

15:                                               ; preds = %10
  call void @PyErr_Clear()
  store i32 1, ptr %4, align 4
  br label %33

16:                                               ; preds = %3
  %17 = load ptr, ptr %7, align 8, !tbaa !9
  %18 = load ptr, ptr %6, align 8, !tbaa !31
  %19 = call i32 @_PyArena_AddPyObject(ptr noundef %17, ptr noundef %18)
  %20 = icmp slt i32 %19, 0
  br i1 %20, label %21, label %23

21:                                               ; preds = %16
  %22 = load ptr, ptr %6, align 8, !tbaa !31
  call void @Py_DECREF(ptr noundef %22)
  store i32 0, ptr %4, align 4
  br label %33

23:                                               ; preds = %16
  %24 = load ptr, ptr %5, align 8, !tbaa !44
  %25 = getelementptr inbounds nuw %struct._expr, ptr %24, i32 0, i32 0
  store i32 20, ptr %25, align 8, !tbaa !94
  %26 = load ptr, ptr %5, align 8, !tbaa !44
  %27 = getelementptr inbounds nuw %struct._expr, ptr %26, i32 0, i32 1
  %28 = getelementptr inbounds nuw %struct.anon.54, ptr %27, i32 0, i32 1
  store ptr null, ptr %28, align 8, !tbaa !35
  %29 = load ptr, ptr %6, align 8, !tbaa !31
  %30 = load ptr, ptr %5, align 8, !tbaa !44
  %31 = getelementptr inbounds nuw %struct._expr, ptr %30, i32 0, i32 1
  %32 = getelementptr inbounds nuw %struct.anon.54, ptr %31, i32 0, i32 0
  store ptr %29, ptr %32, align 8, !tbaa !35
  store i32 1, ptr %4, align 4
  br label %33

33:                                               ; preds = %23, %21, %15, %14
  %34 = load i32, ptr %4, align 4
  ret i32 %34
}

; Function Attrs: nounwind uwtable
define internal i32 @fold_subscr(ptr noundef %0, ptr noundef %1, ptr noundef %2) #0 {
  %4 = alloca i32, align 4
  %5 = alloca ptr, align 8
  %6 = alloca ptr, align 8
  %7 = alloca ptr, align 8
  %8 = alloca ptr, align 8
  %9 = alloca ptr, align 8
  %10 = alloca ptr, align 8
  %11 = alloca i32, align 4
  store ptr %0, ptr %5, align 8, !tbaa !44
  store ptr %1, ptr %6, align 8, !tbaa !9
  store ptr %2, ptr %7, align 8, !tbaa !32
  call void @llvm.lifetime.start.p0(i64 8, ptr %8) #8
  call void @llvm.lifetime.start.p0(i64 8, ptr %9) #8
  call void @llvm.lifetime.start.p0(i64 8, ptr %10) #8
  %12 = load ptr, ptr %5, align 8, !tbaa !44
  %13 = getelementptr inbounds nuw %struct._expr, ptr %12, i32 0, i32 1
  %14 = getelementptr inbounds nuw %struct.anon.56, ptr %13, i32 0, i32 0
  %15 = load ptr, ptr %14, align 8, !tbaa !35
  store ptr %15, ptr %9, align 8, !tbaa !44
  %16 = load ptr, ptr %5, align 8, !tbaa !44
  %17 = getelementptr inbounds nuw %struct._expr, ptr %16, i32 0, i32 1
  %18 = getelementptr inbounds nuw %struct.anon.56, ptr %17, i32 0, i32 1
  %19 = load ptr, ptr %18, align 8, !tbaa !35
  store ptr %19, ptr %10, align 8, !tbaa !44
  %20 = load ptr, ptr %5, align 8, !tbaa !44
  %21 = getelementptr inbounds nuw %struct._expr, ptr %20, i32 0, i32 1
  %22 = getelementptr inbounds nuw %struct.anon.56, ptr %21, i32 0, i32 2
  %23 = load i32, ptr %22, align 8, !tbaa !35
  %24 = icmp ne i32 %23, 1
  br i1 %24, label %35, label %25

25:                                               ; preds = %3
  %26 = load ptr, ptr %9, align 8, !tbaa !44
  %27 = getelementptr inbounds nuw %struct._expr, ptr %26, i32 0, i32 0
  %28 = load i32, ptr %27, align 8, !tbaa !94
  %29 = icmp ne i32 %28, 20
  br i1 %29, label %35, label %30

30:                                               ; preds = %25
  %31 = load ptr, ptr %10, align 8, !tbaa !44
  %32 = getelementptr inbounds nuw %struct._expr, ptr %31, i32 0, i32 0
  %33 = load i32, ptr %32, align 8, !tbaa !94
  %34 = icmp ne i32 %33, 20
  br i1 %34, label %35, label %36

35:                                               ; preds = %30, %25, %3
  store i32 1, ptr %4, align 4
  store i32 1, ptr %11, align 4
  br label %50

36:                                               ; preds = %30
  %37 = load ptr, ptr %9, align 8, !tbaa !44
  %38 = getelementptr inbounds nuw %struct._expr, ptr %37, i32 0, i32 1
  %39 = getelementptr inbounds nuw %struct.anon.54, ptr %38, i32 0, i32 0
  %40 = load ptr, ptr %39, align 8, !tbaa !35
  %41 = load ptr, ptr %10, align 8, !tbaa !44
  %42 = getelementptr inbounds nuw %struct._expr, ptr %41, i32 0, i32 1
  %43 = getelementptr inbounds nuw %struct.anon.54, ptr %42, i32 0, i32 0
  %44 = load ptr, ptr %43, align 8, !tbaa !35
  %45 = call ptr @PyObject_GetItem(ptr noundef %40, ptr noundef %44)
  store ptr %45, ptr %8, align 8, !tbaa !31
  %46 = load ptr, ptr %5, align 8, !tbaa !44
  %47 = load ptr, ptr %8, align 8, !tbaa !31
  %48 = load ptr, ptr %6, align 8, !tbaa !9
  %49 = call i32 @make_const(ptr noundef %46, ptr noundef %47, ptr noundef %48)
  store i32 %49, ptr %4, align 4
  store i32 1, ptr %11, align 4
  br label %50

50:                                               ; preds = %36, %35
  call void @llvm.lifetime.end.p0(i64 8, ptr %10) #8
  call void @llvm.lifetime.end.p0(i64 8, ptr %9) #8
  call void @llvm.lifetime.end.p0(i64 8, ptr %8) #8
  %51 = load i32, ptr %4, align 4
  ret i32 %51
}