; Function Attrs: nounwind uwtable
define internal fastcc range(i32 0, 2) i32 @fold_subscr(ptr noundef captures(none) %0, ptr noundef %1) unnamed_addr #0 {
  %3 = getelementptr inbounds nuw i8, ptr %0, i64 8
  %4 = load ptr, ptr %3, align 8, !tbaa !28
  %5 = getelementptr inbounds nuw i8, ptr %0, i64 16
  %6 = load ptr, ptr %5, align 8, !tbaa !28
  %7 = getelementptr inbounds nuw i8, ptr %0, i64 24
  %8 = load i32, ptr %7, align 8, !tbaa !28
  %.not = icmp eq i32 %8, 1
  br i1 %.not, label %9, label %make_const.exit

9:                                                ; preds = %2
  %10 = load i32, ptr %4, align 8, !tbaa !101
  %.not10 = icmp eq i32 %10, 20
  br i1 %.not10, label %11, label %make_const.exit

11:                                               ; preds = %9
  %12 = load i32, ptr %6, align 8, !tbaa !101
  %.not11 = icmp eq i32 %12, 20
  br i1 %.not11, label %13, label %make_const.exit

13:                                               ; preds = %11
  %14 = getelementptr inbounds nuw i8, ptr %4, i64 8
  %15 = load ptr, ptr %14, align 8, !tbaa !28
  %16 = getelementptr inbounds nuw i8, ptr %6, i64 8
  %17 = load ptr, ptr %16, align 8, !tbaa !28
  %18 = tail call ptr @PyObject_GetItem(ptr noundef %15, ptr noundef %17) #8
  %19 = icmp eq ptr %18, null
  br i1 %19, label %20, label %24

20:                                               ; preds = %13
  %21 = load ptr, ptr @PyExc_KeyboardInterrupt, align 8, !tbaa !35
  %22 = tail call i32 @PyErr_ExceptionMatches(ptr noundef %21) #8
  %.not.i = icmp eq i32 %22, 0
  br i1 %.not.i, label %23, label %make_const.exit

23:                                               ; preds = %20
  tail call void @PyErr_Clear() #8
  br label %make_const.exit

24:                                               ; preds = %13
  %25 = tail call i32 @_PyArena_AddPyObject(ptr noundef %1, ptr noundef nonnull %18) #8
  %26 = icmp slt i32 %25, 0
  br i1 %26, label %27, label %33

27:                                               ; preds = %24
  %28 = load i32, ptr %18, align 8, !tbaa !28
  %.not.i.i = icmp sgt i32 %28, -1
  br i1 %.not.i.i, label %29, label %make_const.exit

29:                                               ; preds = %27
  %30 = add nsw i32 %28, -1
  store i32 %30, ptr %18, align 8, !tbaa !28
  %31 = icmp eq i32 %30, 0
  br i1 %31, label %32, label %make_const.exit

32:                                               ; preds = %29
  tail call void @_Py_Dealloc(ptr noundef nonnull %18) #8
  br label %make_const.exit

33:                                               ; preds = %24
  store i32 20, ptr %0, align 8, !tbaa !101
  store ptr null, ptr %5, align 8, !tbaa !28
  store ptr %18, ptr %3, align 8, !tbaa !28
  br label %make_const.exit

make_const.exit:                                  ; preds = %33, %32, %29, %27, %23, %20, %2, %9, %11
  %.0 = phi i32 [ 1, %11 ], [ 1, %9 ], [ 1, %2 ], [ 1, %23 ], [ 1, %33 ], [ 0, %20 ], [ 0, %27 ], [ 0, %29 ], [ 0, %32 ]
  ret i32 %.0
}